; ModuleID = '5/1256.c'
source_filename = "5/1256.c"
target datalayout = "e-m:e-p270:32:32-p271:32:32-p272:64:64-i64:64-f80:128-n8:16:32:64-S128"
target triple = "x86_64-pc-linux-gnu"

@.str = private unnamed_addr constant [5 x i8] c"%lf\0A\00", align 1
@.str.1 = private unnamed_addr constant [4 x i8] c"%s\0A\00", align 1
@.str.2 = private unnamed_addr constant [7 x i8] c"error\0A\00", align 1
@.str.3 = private unnamed_addr constant [5 x i8] c"yes\0A\00", align 1
@.str.4 = private unnamed_addr constant [4 x i8] c"no\0A\00", align 1

; Function Attrs: noinline nounwind uwtable
define dso_local i32 @main() #0 {
  %1 = alloca i32, align 4
  %2 = alloca double, align 8
  %3 = alloca double, align 8
  %4 = alloca double, align 8
  %5 = alloca double, align 8
  %6 = alloca double, align 8
  %7 = alloca i32, align 4
  %8 = alloca i32, align 4
  %9 = alloca [501 x i8], align 16
  %10 = alloca [501 x i8], align 16
  store i32 0, i32* %1, align 4
  store double 0.000000e+00, double* %3, align 8
  store double 0.000000e+00, double* %4, align 8
  store double 0.000000e+00, double* %5, align 8
  store double 0.000000e+00, double* %6, align 8
  store i32 0, i32* %8, align 4
  %11 = call i32 (i8*, ...) @__isoc99_scanf(i8* getelementptr inbounds ([5 x i8], [5 x i8]* @.str, i64 0, i64 0), double* %2)
  %12 = getelementptr inbounds [501 x i8], [501 x i8]* %9, i64 0, i64 0
  %13 = call i32 (i8*, ...) @__isoc99_scanf(i8* getelementptr inbounds ([4 x i8], [4 x i8]* @.str.1, i64 0, i64 0), i8* %12)
  %14 = getelementptr inbounds [501 x i8], [501 x i8]* %10, i64 0, i64 0
  %15 = call i32 (i8*, ...) @__isoc99_scanf(i8* getelementptr inbounds ([4 x i8], [4 x i8]* @.str.1, i64 0, i64 0), i8* %14)
  %16 = getelementptr inbounds [501 x i8], [501 x i8]* %9, i64 0, i64 0
  %17 = call i64 @strlen(i8* %16) #3
  %18 = uitofp i64 %17 to double
  store double %18, double* %5, align 8
  %19 = getelementptr inbounds [501 x i8], [501 x i8]* %10, i64 0, i64 0
  %20 = call i64 @strlen(i8* %19) #3
  %21 = uitofp i64 %20 to double
  store double %21, double* %6, align 8
  %22 = load double, double* %5, align 8
  %23 = load double, double* %6, align 8
  %24 = fcmp une double %22, %23
  br i1 %24, label %25, label %27

25:                                               ; preds = %0
  %26 = call i32 (i8*, ...) @printf(i8* getelementptr inbounds ([7 x i8], [7 x i8]* @.str.2, i64 0, i64 0))
  br label %141

27:                                               ; preds = %0
  store i32 0, i32* %7, align 4
  br label %28

28:                                               ; preds = %93, %27
  %29 = load i32, i32* %7, align 4
  %30 = sitofp i32 %29 to double
  %31 = load double, double* %5, align 8
  %32 = fcmp olt double %30, %31
  br i1 %32, label %33, label %96

33:                                               ; preds = %28
  %34 = load i32, i32* %7, align 4
  %35 = sext i32 %34 to i64
  %36 = getelementptr inbounds [501 x i8], [501 x i8]* %9, i64 0, i64 %35
  %37 = load i8, i8* %36, align 1
  %38 = sext i8 %37 to i32
  %39 = icmp eq i32 %38, 65
  br i1 %39, label %61, label %40

40:                                               ; preds = %33
  %41 = load i32, i32* %7, align 4
  %42 = sext i32 %41 to i64
  %43 = getelementptr inbounds [501 x i8], [501 x i8]* %9, i64 0, i64 %42
  %44 = load i8, i8* %43, align 1
  %45 = sext i8 %44 to i32
  %46 = icmp eq i32 %45, 84
  br i1 %46, label %61, label %47

47:                                               ; preds = %40
  %48 = load i32, i32* %7, align 4
  %49 = sext i32 %48 to i64
  %50 = getelementptr inbounds [501 x i8], [501 x i8]* %9, i64 0, i64 %49
  %51 = load i8, i8* %50, align 1
  %52 = sext i8 %51 to i32
  %53 = icmp eq i32 %52, 67
  br i1 %53, label %61, label %54

54:                                               ; preds = %47
  %55 = load i32, i32* %7, align 4
  %56 = sext i32 %55 to i64
  %57 = getelementptr inbounds [501 x i8], [501 x i8]* %9, i64 0, i64 %56
  %58 = load i8, i8* %57, align 1
  %59 = sext i8 %58 to i32
  %60 = icmp eq i32 %59, 71
  br i1 %60, label %61, label %92

61:                                               ; preds = %54, %47, %40, %33
  %62 = load i32, i32* %7, align 4
  %63 = sext i32 %62 to i64
  %64 = getelementptr inbounds [501 x i8], [501 x i8]* %10, i64 0, i64 %63
  %65 = load i8, i8* %64, align 1
  %66 = sext i8 %65 to i32
  %67 = icmp eq i32 %66, 65
  br i1 %67, label %89, label %68

68:                                               ; preds = %61
  %69 = load i32, i32* %7, align 4
  %70 = sext i32 %69 to i64
  %71 = getelementptr inbounds [501 x i8], [501 x i8]* %10, i64 0, i64 %70
  %72 = load i8, i8* %71, align 1
  %73 = sext i8 %72 to i32
  %74 = icmp eq i32 %73, 84
  br i1 %74, label %89, label %75

75:                                               ; preds = %68
  %76 = load i32, i32* %7, align 4
  %77 = sext i32 %76 to i64
  %78 = getelementptr inbounds [501 x i8], [501 x i8]* %10, i64 0, i64 %77
  %79 = load i8, i8* %78, align 1
  %80 = sext i8 %79 to i32
  %81 = icmp eq i32 %80, 67
  br i1 %81, label %89, label %82

82:                                               ; preds = %75
  %83 = load i32, i32* %7, align 4
  %84 = sext i32 %83 to i64
  %85 = getelementptr inbounds [501 x i8], [501 x i8]* %10, i64 0, i64 %84
  %86 = load i8, i8* %85, align 1
  %87 = sext i8 %86 to i32
  %88 = icmp eq i32 %87, 71
  br i1 %88, label %89, label %92

89:                                               ; preds = %82, %75, %68, %61
  %90 = load i32, i32* %8, align 4
  %91 = add nsw i32 %90, 1
  store i32 %91, i32* %8, align 4
  br label %92

92:                                               ; preds = %89, %82, %54
  br label %93

93:                                               ; preds = %92
  %94 = load i32, i32* %7, align 4
  %95 = add nsw i32 %94, 1
  store i32 %95, i32* %7, align 4
  br label %28

96:                                               ; preds = %28
  %97 = load i32, i32* %8, align 4
  %98 = sitofp i32 %97 to double
  %99 = load double, double* %5, align 8
  %100 = fcmp une double %98, %99
  br i1 %100, label %101, label %103

101:                                              ; preds = %96
  %102 = call i32 (i8*, ...) @printf(i8* getelementptr inbounds ([7 x i8], [7 x i8]* @.str.2, i64 0, i64 0))
  br label %140

103:                                              ; preds = %96
  %104 = load double, double* %5, align 8
  store double %104, double* %3, align 8
  store i32 0, i32* %7, align 4
  br label %105

105:                                              ; preds = %126, %103
  %106 = load i32, i32* %7, align 4
  %107 = sitofp i32 %106 to double
  %108 = load double, double* %5, align 8
  %109 = fcmp olt double %107, %108
  br i1 %109, label %110, label %129

110:                                              ; preds = %105
  %111 = load i32, i32* %7, align 4
  %112 = sext i32 %111 to i64
  %113 = getelementptr inbounds [501 x i8], [501 x i8]* %9, i64 0, i64 %112
  %114 = load i8, i8* %113, align 1
  %115 = sext i8 %114 to i32
  %116 = load i32, i32* %7, align 4
  %117 = sext i32 %116 to i64
  %118 = getelementptr inbounds [501 x i8], [501 x i8]* %10, i64 0, i64 %117
  %119 = load i8, i8* %118, align 1
  %120 = sext i8 %119 to i32
  %121 = icmp eq i32 %115, %120
  br i1 %121, label %122, label %125

122:                                              ; preds = %110
  %123 = load double, double* %4, align 8
  %124 = fadd double %123, 1.000000e+00
  store double %124, double* %4, align 8
  br label %125

125:                                              ; preds = %122, %110
  br label %126

126:                                              ; preds = %125
  %127 = load i32, i32* %7, align 4
  %128 = add nsw i32 %127, 1
  store i32 %128, i32* %7, align 4
  br label %105

129:                                              ; preds = %105
  %130 = load double, double* %4, align 8
  %131 = load double, double* %3, align 8
  %132 = fdiv double %130, %131
  %133 = load double, double* %2, align 8
  %134 = fcmp ogt double %132, %133
  br i1 %134, label %135, label %137

135:                                              ; preds = %129
  %136 = call i32 (i8*, ...) @printf(i8* getelementptr inbounds ([5 x i8], [5 x i8]* @.str.3, i64 0, i64 0))
  br label %139

137:                                              ; preds = %129
  %138 = call i32 (i8*, ...) @printf(i8* getelementptr inbounds ([4 x i8], [4 x i8]* @.str.4, i64 0, i64 0))
  br label %139

139:                                              ; preds = %137, %135
  br label %140

140:                                              ; preds = %139, %101
  br label %141

141:                                              ; preds = %140, %25
  ret i32 0
}

declare dso_local i32 @__isoc99_scanf(i8*, ...) #1

; Function Attrs: nounwind readonly
declare dso_local i64 @strlen(i8*) #2

declare dso_local i32 @printf(i8*, ...) #1


!llvm.module.flags = !{!0}
!llvm.ident = !{!1}

!0 = !{i32 1, !"wchar_size", i32 4}
!1 = !{!"clang version 10.0.0-4ubuntu1 "}
